ARM GAS  C:\Users\dmeichle\AppData\Local\Temp\ccPKrfC4.s 			page 1


   1              		.syntax unified
   2              		.cpu cortex-m3
   3              		.fpu softvfp
   4              		.eabi_attribute 20, 1
   5              		.eabi_attribute 21, 1
   6              		.eabi_attribute 23, 3
   7              		.eabi_attribute 24, 1
   8              		.eabi_attribute 25, 1
   9              		.eabi_attribute 26, 1
  10              		.eabi_attribute 30, 1
  11              		.eabi_attribute 34, 1
  12              		.eabi_attribute 18, 4
  13              		.thumb
  14              		.syntax unified
  15              		.file	"eig.c"
  16              		.text
  17              	.Ltext0:
  18              		.cfi_sections	.debug_frame
  19              		.global	__aeabi_fmul
  20              		.global	__aeabi_fadd
  21              		.section	.text.compute_rayleigh_quotient,"ax",%progbits
  22              		.align	2
  23              		.thumb
  24              		.thumb_func
  25              		.type	compute_rayleigh_quotient, %function
  26              	compute_rayleigh_quotient:
  27              	.LFB4:
  28              		.file 1 "eig.c"
   1:eig.c         **** /**************************************************************************//**
   2:eig.c         ****  *
   3:eig.c         ****  * @file   eig.c
   4:eig.c         ****  * @author David DeBaun
   5:eig.c         ****  * @date   11/2/2015
   6:eig.c         ****  *
   7:eig.c         ****  * @brief This module performs eigen decomposition of a symmetric matrix into  
   8:eig.c         ****  * its principle components. 
   9:eig.c         ****  * 
  10:eig.c         ****  * @copyright
  11:eig.c         ****  * WiTricity Corporation
  12:eig.c         ****  * CONFIDENTIAL AND PROPRIETARY
  13:eig.c         ****  * Copyright 2015 WiTricity Corporation
  14:eig.c         ****  * All Rights Reserved
  15:eig.c         ****  *
  16:eig.c         ****  * NOTICE:  All information contained herein is and remains the property
  17:eig.c         ****  * of WiTricity Corporation and its licensors.  The intellectual and
  18:eig.c         ****  * technical concepts contained herein are proprietary to WiTricity and
  19:eig.c         ****  * may be covered by U.S. and foreign patents and patent applications,
  20:eig.c         ****  * and are protected by trade secret and copyright law.  Dissemination of
  21:eig.c         ****  * this information or reproduction of this material is strictly
  22:eig.c         ****  * forbidden unless prior written permission is obtained from WiTricity.
  23:eig.c         ****  *
  24:eig.c         ****  *****************************************************************************/
  25:eig.c         **** 
  26:eig.c         **** #include "knobs.h"
  27:eig.c         **** #include "eig.h"
  28:eig.c         **** #include "math.h"
  29:eig.c         **** 
ARM GAS  C:\Users\dmeichle\AppData\Local\Temp\ccPKrfC4.s 			page 2


  30:eig.c         **** 
  31:eig.c         **** // external globals
  32:eig.c         **** extern float W1[MAT_SIZE][MAT_SIZE];                // workspace matrix 1
  33:eig.c         **** extern float W2[MAT_SIZE][MAT_SIZE];                // workspace matrix 2
  34:eig.c         **** extern float W3[MAT_SIZE][MAT_SIZE];                // workspace matrix 3
  35:eig.c         **** 
  36:eig.c         **** // static function prototypes
  37:eig.c         **** static void power_iteration(float Phi_row[MAT_SIZE], 
  38:eig.c         ****   float Sigma[MAT_SIZE][MAT_SIZE], float eig_vec[MAT_SIZE], const uint8 p_iter);
  39:eig.c         **** static float compute_rayleigh_quotient(float Sigma[MAT_SIZE][MAT_SIZE], 
  40:eig.c         ****   float eig_vec[MAT_SIZE]);
  41:eig.c         **** static float rayleigh_quotient_iteration(float Phi_row[MAT_SIZE], 
  42:eig.c         ****   float Sigma[MAT_SIZE][MAT_SIZE], float eig_vec[MAT_SIZE], const uint8 r_iter);
  43:eig.c         **** static void deflation(float Deflated_Sigma[MAT_SIZE][MAT_SIZE], 
  44:eig.c         ****   float Sigma[MAT_SIZE][MAT_SIZE], float eig_vec[MAT_SIZE], float lambda);
  45:eig.c         **** 
  46:eig.c         **** float dot(float a[MAT_SIZE], float b[MAT_SIZE]);
  47:eig.c         **** 
  48:eig.c         **** /**************************************************************************//**
  49:eig.c         ****  * eig_decomp
  50:eig.c         ****  *
  51:eig.c         ****  * @brief Primary public function that accepts a symmetric 2D array, 2D of 
  52:eig.c         ****  * initial eigenvector guesses, number of Power Iterations and Rayleigh 
  53:eig.c         ****  * Iterations, and updates an array of eigenvalues and a 2D array of eigenvectors
  54:eig.c         ****  * with computed eigenvalues and eigenvectors for the symmetric 2D array.
  55:eig.c         ****  *
  56:eig.c         ****  * @param[out] lambda Array that gets updated with PRINCIPLE_COMPONENTS number of 
  57:eig.c         ****  * the most dominant eigenvalues for Sigma.
  58:eig.c         ****  *
  59:eig.c         ****  * @param[out] Phi 2D array that gets updated with PRINCIPLE_COMPONENTS number of 
  60:eig.c         ****  * MAT_SIZE-length eigenvectors for Sigma.
  61:eig.c         ****  *
  62:eig.c         ****  * @param[in] Sigma 2D array representing the symmetric matrix to be decomposed.
  63:eig.c         ****  *
  64:eig.c         ****  * @param[in] Eig_vecs_init 2D array of the PRINCIPLE_COMPONENTS number of 
  65:eig.c         ****  * MAT_SIZE-length initial eigenvector guesses for iteration.
  66:eig.c         ****  *
  67:eig.c         ****  * @param[in] p_iter Number of Power Iterations for eigen decomp.
  68:eig.c         ****  *
  69:eig.c         ****  * @param[in] r_iter Number of Rayleigh Quotient iterations for eigen decomp.
  70:eig.c         ****  *
  71:eig.c         ****  * @return Nothing.
  72:eig.c         ****  *
  73:eig.c         ****  *****************************************************************************/
  74:eig.c         **** 
  75:eig.c         **** void eig_decomp(float lambda[PRINCIPLE_COMPONENTS], 
  76:eig.c         ****   float Phi[PRINCIPLE_COMPONENTS][MAT_SIZE], float Sigma[MAT_SIZE][MAT_SIZE], 
  77:eig.c         ****   float Eig_vecs_init[PRINCIPLE_COMPONENTS][MAT_SIZE], const uint8 p_iter, 
  78:eig.c         ****   const uint8 r_iter)
  79:eig.c         **** {
  80:eig.c         ****   uint8 i = 0;
  81:eig.c         ****     
  82:eig.c         ****   /* Conditionals are for flexibility in chosing any combo of Power or Rayleigh 
  83:eig.c         ****     Iterations - can be streamlined based on system testing */
  84:eig.c         ****   if (p_iter > 0)
  85:eig.c         ****   {
  86:eig.c         ****     // computing dominant eigenvector 
ARM GAS  C:\Users\dmeichle\AppData\Local\Temp\ccPKrfC4.s 			page 3


  87:eig.c         ****     power_iteration(Phi[0], Sigma, Eig_vecs_init[0], p_iter);
  88:eig.c         ****     if (0 == r_iter)
  89:eig.c         ****     {
  90:eig.c         ****       lambda[0] = compute_rayleigh_quotient(Sigma, Phi[0]);
  91:eig.c         ****     }
  92:eig.c         ****     else
  93:eig.c         ****     { /* r_iter > 0 */
  94:eig.c         ****       lambda[0] = rayleigh_quotient_iteration(Phi[0], Sigma, Phi[0], r_iter);
  95:eig.c         ****     }
  96:eig.c         ****   }
  97:eig.c         ****   else if (r_iter > 0) 
  98:eig.c         ****   {
  99:eig.c         ****     lambda[0] = rayleigh_quotient_iteration(Phi[0], Sigma, Eig_vecs_init[0], r_iter);
 100:eig.c         ****   } /* else, p_it == 0 and r_it == 0 and Phi won't be updated */
 101:eig.c         ****   
 102:eig.c         ****   for (i = 1; i < PRINCIPLE_COMPONENTS; ++i) // loop for each remaining PC
 103:eig.c         ****   {
 104:eig.c         ****     // perform deflation on matrix to remove the dominant eigenvector component
 105:eig.c         ****     if (1 == i) 
 106:eig.c         ****     {
 107:eig.c         ****       // updates W1 with deflated Sigma the first time
 108:eig.c         ****       deflation(W1, Sigma, Phi[0], lambda[0]); 
 109:eig.c         ****     } 
 110:eig.c         ****     else 
 111:eig.c         ****     {
 112:eig.c         ****       // updates W1 with deflated W1 after the first time
 113:eig.c         ****       deflation(W1, W1, Phi[i-1], lambda[i-1]);
 114:eig.c         ****     }
 115:eig.c         **** 
 116:eig.c         ****     if (p_iter > 0) 
 117:eig.c         ****     {
 118:eig.c         ****       // computing dominant eigenvector
 119:eig.c         ****       power_iteration(Phi[i], W1, Eig_vecs_init[i], p_iter); 
 120:eig.c         ****       if (0 == r_iter) 
 121:eig.c         ****       {
 122:eig.c         ****         lambda[i] = compute_rayleigh_quotient(W1, Phi[i]);
 123:eig.c         ****       } 
 124:eig.c         ****       else 
 125:eig.c         ****       { /* r_iter > 0 */                
 126:eig.c         ****         lambda[i] = rayleigh_quotient_iteration(Phi[i], W1, Phi[i], r_iter);
 127:eig.c         ****       }
 128:eig.c         ****     } 
 129:eig.c         ****     else if (r_iter > 0) 
 130:eig.c         ****     {
 131:eig.c         ****       lambda[i] = rayleigh_quotient_iteration(Phi[i], W1, Eig_vecs_init[i], r_iter);
 132:eig.c         ****     } /* else, p_it == 0 and r_it == 0 and Phi won't be updated */
 133:eig.c         ****   } // end loop for each remaining PC
 134:eig.c         ****     
 135:eig.c         ****   return;
 136:eig.c         **** }
 137:eig.c         **** 
 138:eig.c         **** /**************************************************************************//**
 139:eig.c         ****  * power_iteration
 140:eig.c         ****  *
 141:eig.c         ****  * @brief Static function for performing Power Iteration method on 2D symmetric
 142:eig.c         ****  * matrix to compute the dominant eigenvector from an initial eigenvector guess.
 143:eig.c         ****  * 
ARM GAS  C:\Users\dmeichle\AppData\Local\Temp\ccPKrfC4.s 			page 4


 144:eig.c         ****  * @param[out] Phi_row Array of length MAT_SIZE that gets updated with the 
 145:eig.c         ****  * computed dominant eigenvector for Sigma.
 146:eig.c         ****  * 
 147:eig.c         ****  * @param[in] Sigma 2D array representing the symmetric matrix to be decomposed.
 148:eig.c         ****  *
 149:eig.c         ****  * @param[in] eig_vec MAT_SIZE-length initial eigenvector guess for iteration.
 150:eig.c         ****  *
 151:eig.c         ****  * @param[in] p_iter Number of Power Iterations for eigen decomp.
 152:eig.c         ****  *
 153:eig.c         ****  * @return Nothing, void function.
 154:eig.c         ****  *
 155:eig.c         ****  *****************************************************************************/
 156:eig.c         **** 
 157:eig.c         **** static void power_iteration(float Phi_row[MAT_SIZE], 
 158:eig.c         ****   float Sigma[MAT_SIZE][MAT_SIZE], float eig_vec[MAT_SIZE], const uint8 p_iter)
 159:eig.c         **** {
 160:eig.c         ****   /* 
 161:eig.c         ****     Performs power iteration on Sigma using initial eigenvector guess v_eig and
 162:eig.c         ****     updates the row of Phi at pointer Phi_row
 163:eig.c         ****   */
 164:eig.c         ****   uint8 i = 0, j = 0;
 165:eig.c         ****   float norm_v = 0;
 166:eig.c         ****   float temp_vec[MAT_SIZE] = {0};
 167:eig.c         ****     
 168:eig.c         ****   for (i = 0; i < p_iter; ++i) 
 169:eig.c         ****   {
 170:eig.c         ****     if (0 == i)
 171:eig.c         ****     {
 172:eig.c         ****     /* temp_vec = Sigma * eig_vec, Matrix-vector multiplication */
 173:eig.c         ****       for (j = 0; j < MAT_SIZE; ++j) 
 174:eig.c         ****       {
 175:eig.c         ****         temp_vec[j] = dot(Sigma[j], eig_vec);
 176:eig.c         ****       }
 177:eig.c         ****     }
 178:eig.c         ****     else
 179:eig.c         ****     {
 180:eig.c         ****     /* temp_vec = Sigma * Phi_row, Matrix-vector multiplication */
 181:eig.c         ****       for (j = 0; j < MAT_SIZE; ++j) 
 182:eig.c         ****       {
 183:eig.c         ****         temp_vec[j] = dot(Sigma[j], Phi_row);
 184:eig.c         ****       }
 185:eig.c         ****     }
 186:eig.c         ****     
 187:eig.c         ****     norm_v = sqrt(dot(temp_vec, temp_vec));
 188:eig.c         ****         
 189:eig.c         ****     for (j = 0; j < MAT_SIZE; ++j) 
 190:eig.c         ****     {
 191:eig.c         ****     Phi_row[j] = temp_vec[j] / norm_v;
 192:eig.c         ****     }
 193:eig.c         ****   }    
 194:eig.c         ****   return;
 195:eig.c         **** }
 196:eig.c         **** 
 197:eig.c         **** /**************************************************************************//**
 198:eig.c         ****  * dot
 199:eig.c         ****  *
 200:eig.c         ****  * @brief Public function for computing dot product of two MAT_SIZE-length 
ARM GAS  C:\Users\dmeichle\AppData\Local\Temp\ccPKrfC4.s 			page 5


 201:eig.c         ****  * arrays.
 202:eig.c         ****  * 
 203:eig.c         ****  * @param[in] a One array of length MAT_SIZE.
 204:eig.c         ****  * 
 205:eig.c         ****  * @param[in] b One array of length MAT_SIZE.
 206:eig.c         ****  *
 207:eig.c         ****  * @return c Scalar dot product of the two arrays.
 208:eig.c         ****  *
 209:eig.c         ****  *****************************************************************************/
 210:eig.c         **** 
 211:eig.c         **** float dot(float a[MAT_SIZE], float b[MAT_SIZE])
 212:eig.c         **** {
 213:eig.c         ****   /* Returns the dot product of float arrays of length MAT_SIZE at pointers "a"
 214:eig.c         ****     and "b" in scalar float "c"  */
 215:eig.c         ****     
 216:eig.c         ****   uint8 i = 0;
 217:eig.c         ****   float c = 0;
 218:eig.c         ****         
 219:eig.c         ****   for (i = 0; i < MAT_SIZE; ++i) 
 220:eig.c         ****   {
 221:eig.c         ****     c += a[i] * b[i];
 222:eig.c         ****   }
 223:eig.c         ****     
 224:eig.c         ****   return c;
 225:eig.c         **** }
 226:eig.c         **** 
 227:eig.c         **** /**************************************************************************//**
 228:eig.c         ****  * compute_rayleigh_quotient
 229:eig.c         ****  *
 230:eig.c         ****  * @brief Static function for computing Rayleigh Quotient for symmetric matrix
 231:eig.c         ****  * and a vector. Used by Power Iteration and Rayleigh Iteration.
 232:eig.c         ****  *
 233:eig.c         ****  * @param[in] Sigma 2D array of dimension MAT_SIZE x MAT_SIZE.
 234:eig.c         ****  * 
 235:eig.c         ****  * @param[in] eig_vec One array of length MAT_SIZE.
 236:eig.c         ****  *
 237:eig.c         ****  * @return lambda_l Scalar value representing Rayleigh Quotient.
 238:eig.c         ****  *
 239:eig.c         ****  *****************************************************************************/
 240:eig.c         **** 
 241:eig.c         **** static float compute_rayleigh_quotient(float Sigma[MAT_SIZE][MAT_SIZE], 
 242:eig.c         ****   float eig_vec[MAT_SIZE])
 243:eig.c         **** {
  29              		.loc 1 243 0
  30              		.cfi_startproc
  31              		@ args = 0, pretend = 0, frame = 0
  32              		@ frame_needed = 0, uses_anonymous_args = 0
  33              	.LVL0:
  34 0000 2DE9F84F 		push	{r3, r4, r5, r6, r7, r8, r9, r10, fp, lr}
  35              		.cfi_def_cfa_offset 40
  36              		.cfi_offset 3, -40
  37              		.cfi_offset 4, -36
  38              		.cfi_offset 5, -32
  39              		.cfi_offset 6, -28
  40              		.cfi_offset 7, -24
  41              		.cfi_offset 8, -20
  42              		.cfi_offset 9, -16
ARM GAS  C:\Users\dmeichle\AppData\Local\Temp\ccPKrfC4.s 			page 6


  43              		.cfi_offset 10, -12
  44              		.cfi_offset 11, -8
  45              		.cfi_offset 14, -4
  46 0004 8346     		mov	fp, r0
  47 0006 8846     		mov	r8, r1
  48              	.LVL1:
 244:eig.c         ****   /* % calculate Rayleigh quotient, lambda_l
 245:eig.c         ****   lambda_l = eig_vec_T * Sigma * eig_vec, for Sigma symmetric */
 246:eig.c         ****     
 247:eig.c         ****   uint8 i = 0, j = 0;
 248:eig.c         ****   float lambda_l = 0, temp = 0;
  49              		.loc 1 248 0
  50 0008 0024     		movs	r4, #0
 249:eig.c         ****         
 250:eig.c         ****   for (i = 0; i < MAT_SIZE; ++i) 
  51              		.loc 1 250 0
  52 000a 4FF00009 		mov	r9, #0
  53 000e 33E0     		b	.L2
  54              	.LVL2:
  55              	.L5:
 251:eig.c         ****   {
 252:eig.c         ****     lambda_l += Sigma[i][i] * eig_vec[i] * eig_vec[i];
  56              		.loc 1 252 0
  57 0010 0BEBC917 		add	r7, fp, r9, lsl #7
  58 0014 58F82960 		ldr	r6, [r8, r9, lsl #2]	@ float
  59 0018 3146     		mov	r1, r6
  60 001a 57F82900 		ldr	r0, [r7, r9, lsl #2]	@ float
  61 001e FFF7FEFF 		bl	__aeabi_fmul
  62              	.LVL3:
  63 0022 0146     		mov	r1, r0
  64 0024 3046     		mov	r0, r6
  65 0026 FFF7FEFF 		bl	__aeabi_fmul
  66              	.LVL4:
  67 002a 0146     		mov	r1, r0
  68 002c 2046     		mov	r0, r4
  69 002e FFF7FEFF 		bl	__aeabi_fadd
  70              	.LVL5:
  71 0032 8246     		mov	r10, r0
  72              	.LVL6:
 253:eig.c         ****       for (j = i+1; j < MAT_SIZE; ++j) 
  73              		.loc 1 253 0
  74 0034 09F10109 		add	r9, r9, #1
  75              	.LVL7:
  76 0038 5FFA89F9 		uxtb	r9, r9
  77              	.LVL8:
  78 003c 4C46     		mov	r4, r9
  79 003e 0025     		movs	r5, #0
  80 0040 0FE0     		b	.L3
  81              	.LVL9:
  82              	.L4:
 254:eig.c         ****       {
 255:eig.c         ****         temp += Sigma[i][j] * eig_vec[i] * eig_vec[j];
  83              		.loc 1 255 0 discriminator 3
  84 0042 57F82410 		ldr	r1, [r7, r4, lsl #2]	@ float
  85 0046 3046     		mov	r0, r6
  86 0048 FFF7FEFF 		bl	__aeabi_fmul
  87              	.LVL10:
ARM GAS  C:\Users\dmeichle\AppData\Local\Temp\ccPKrfC4.s 			page 7


  88 004c 58F82410 		ldr	r1, [r8, r4, lsl #2]	@ float
  89 0050 FFF7FEFF 		bl	__aeabi_fmul
  90              	.LVL11:
  91 0054 0146     		mov	r1, r0
  92 0056 2846     		mov	r0, r5
  93 0058 FFF7FEFF 		bl	__aeabi_fadd
  94              	.LVL12:
  95 005c 0546     		mov	r5, r0
  96              	.LVL13:
 253:eig.c         ****       for (j = i+1; j < MAT_SIZE; ++j) 
  97              		.loc 1 253 0 discriminator 3
  98 005e 0134     		adds	r4, r4, #1
  99              	.LVL14:
 100 0060 E4B2     		uxtb	r4, r4
 101              	.LVL15:
 102              	.L3:
 253:eig.c         ****       for (j = i+1; j < MAT_SIZE; ++j) 
 103              		.loc 1 253 0 is_stmt 0 discriminator 1
 104 0062 1F2C     		cmp	r4, #31
 105 0064 EDD9     		bls	.L4
 256:eig.c         ****       }
 257:eig.c         ****     lambda_l += 2 * temp;
 106              		.loc 1 257 0 is_stmt 1 discriminator 2
 107 0066 2946     		mov	r1, r5
 108 0068 2846     		mov	r0, r5
 109 006a FFF7FEFF 		bl	__aeabi_fadd
 110              	.LVL16:
 111 006e 0146     		mov	r1, r0
 112 0070 5046     		mov	r0, r10
 113 0072 FFF7FEFF 		bl	__aeabi_fadd
 114              	.LVL17:
 115 0076 0446     		mov	r4, r0
 116              	.LVL18:
 117              	.L2:
 250:eig.c         ****   {
 118              		.loc 1 250 0 discriminator 1
 119 0078 B9F11F0F 		cmp	r9, #31
 120 007c C8D9     		bls	.L5
 258:eig.c         ****     temp = 0;   
 259:eig.c         ****   }
 260:eig.c         ****     
 261:eig.c         ****   return lambda_l;
 262:eig.c         **** }
 121              		.loc 1 262 0
 122 007e 2046     		mov	r0, r4
 123 0080 BDE8F88F 		pop	{r3, r4, r5, r6, r7, r8, r9, r10, fp, pc}
 124              		.cfi_endproc
 125              	.LFE4:
 126              		.size	compute_rayleigh_quotient, .-compute_rayleigh_quotient
 127              		.global	__aeabi_fsub
 128              		.section	.text.deflation,"ax",%progbits
 129              		.align	2
 130              		.thumb
 131              		.thumb_func
 132              		.type	deflation, %function
 133              	deflation:
 134              	.LFB6:
ARM GAS  C:\Users\dmeichle\AppData\Local\Temp\ccPKrfC4.s 			page 8


 263:eig.c         **** 
 264:eig.c         **** /**************************************************************************//**
 265:eig.c         ****  * rayleigh_quotient_iteration
 266:eig.c         ****  *
 267:eig.c         ****  * @brief Static function for performing Rayleigh Quotient Iteration method on 
 268:eig.c         ****  * 2D symmetric matrix to compute dominant eigenvector and eigenvalue using an
 269:eig.c         ****  * initial eigenvector guess.
 270:eig.c         ****  * 
 271:eig.c         ****  * @param[out] Phi_row Array of length MAT_SIZE that gets updated with the 
 272:eig.c         ****  * final computed dominant eigenvector result.
 273:eig.c         ****  * 
 274:eig.c         ****  * @param[in] Sigma 2D array representing the symmetric matrix to be decomposed.
 275:eig.c         ****  *
 276:eig.c         ****  * @param[in] eig_vec MAT_SIZE-length initial eigenvector guess for iteration.
 277:eig.c         ****  *
 278:eig.c         ****  * @param[in] r_iter Number of Rayleigh Quotient Iterations for eigen decomp.
 279:eig.c         ****  *
 280:eig.c         ****  * @return lambda_l Dominant computed eigenvalue.
 281:eig.c         ****  *
 282:eig.c         ****  *****************************************************************************/
 283:eig.c         **** 
 284:eig.c         **** static float rayleigh_quotient_iteration(float Phi_row[MAT_SIZE], 
 285:eig.c         ****   float Sigma[MAT_SIZE][MAT_SIZE], float eig_vec[MAT_SIZE], const uint8 r_iter)
 286:eig.c         **** {
 287:eig.c         ****   uint8 i = 0, j = 0, k = 0;
 288:eig.c         ****   float lambda_l = 0, norm_v = 0;
 289:eig.c         ****   float temp_vec[MAT_SIZE] = {0};
 290:eig.c         ****      
 291:eig.c         ****   /* compute Rayleigh's quotient initial time */
 292:eig.c         ****   lambda_l = compute_rayleigh_quotient(Sigma, eig_vec);
 293:eig.c         ****     
 294:eig.c         ****   for (i = 0; i < r_iter; ++i)
 295:eig.c         ****   {
 296:eig.c         ****     /* W2 = Sigma - lambda_l * I, where I is identity matrix */
 297:eig.c         ****     for (j = 0; j < MAT_SIZE; ++j) /* loop over rows */
 298:eig.c         ****     {  
 299:eig.c         ****       for (k = 0; k < MAT_SIZE; ++k) /* loop over columns */
 300:eig.c         ****       {
 301:eig.c         ****         if (j == k) /* subtract lambda_l from the diagonal elements */
 302:eig.c         ****         {
 303:eig.c         ****           W2[j][j] = Sigma[j][j] - lambda_l;
 304:eig.c         ****         }
 305:eig.c         ****         else
 306:eig.c         ****         {
 307:eig.c         ****           W2[j][k] = Sigma[j][k];
 308:eig.c         ****         }
 309:eig.c         ****       } /* end looping over columns */
 310:eig.c         ****     } /* end looping over rows */
 311:eig.c         ****         
 312:eig.c         ****     //Invert_Sigma(W2, W3, 0);
 313:eig.c         ****     /* looks like Invert_Sigma requires 2 separate
 314:eig.c         ****                  workspace matrices, and we don't want to modify Sigma or W1 */
 315:eig.c         ****     
 316:eig.c         ****     invert_matrix(W2, W3); // modified version of Invert_Sigma
 317:eig.c         ****     
 318:eig.c         ****     /*  temp_vec = Inv_Matrix * eig_vec, Matrix-vector multiplication */
 319:eig.c         ****     
ARM GAS  C:\Users\dmeichle\AppData\Local\Temp\ccPKrfC4.s 			page 9


 320:eig.c         ****     if (0 == i) // first time...
 321:eig.c         ****     {
 322:eig.c         ****       for (j = 0; j < MAT_SIZE; ++j)
 323:eig.c         ****       {
 324:eig.c         ****         temp_vec[j] = dot(W3[j], eig_vec); // ...start with eig_vec initial guess
 325:eig.c         ****       }
 326:eig.c         ****     }
 327:eig.c         ****     else // after first time...
 328:eig.c         ****     {
 329:eig.c         ****       for (j = 0; j < MAT_SIZE; ++j)
 330:eig.c         ****       {
 331:eig.c         ****         temp_vec[j] = dot(W3[j], Phi_row); //...feedback the previous result 
 332:eig.c         ****       }
 333:eig.c         ****     }
 334:eig.c         ****     
 335:eig.c         ****     /* compute norm for normalization */
 336:eig.c         ****     norm_v = sqrt(dot(temp_vec, temp_vec));
 337:eig.c         ****         
 338:eig.c         ****     /* normalize */
 339:eig.c         ****     for (j = 0; j < MAT_SIZE; ++j) 
 340:eig.c         ****     {
 341:eig.c         ****       Phi_row[j] = temp_vec[j] / norm_v;
 342:eig.c         ****     }
 343:eig.c         ****         
 344:eig.c         ****     /* compute Rayleigh's quotient */
 345:eig.c         ****     lambda_l = compute_rayleigh_quotient(Sigma, Phi_row);
 346:eig.c         ****     
 347:eig.c         ****   } /* end looping through Rayleigh Iterations */
 348:eig.c         ****     
 349:eig.c         ****   return lambda_l;
 350:eig.c         **** }
 351:eig.c         **** 
 352:eig.c         **** /**************************************************************************//**
 353:eig.c         ****  * deflation
 354:eig.c         ****  *
 355:eig.c         ****  * @brief Static function for performing Hotelling's Deflation on matrix Sigma.
 356:eig.c         ****  * Subtracts out the component from Sigma corresponding to the dominant 
 357:eig.c         ****  * eigenpair.
 358:eig.c         ****  *
 359:eig.c         ****  * @param[out] Deflated_Sigma 2D array of dimension MAT_SIZE x MAT_SIZE 
 360:eig.c         ****  * containing result of the deflation.
 361:eig.c         ****  * 
 362:eig.c         ****  * @param[in] Sigma 2D array of dimension MAT_SIZE x MAT_SIZE to be operated on
 363:eig.c         ****  * by deflation.
 364:eig.c         ****  *
 365:eig.c         ****  * @param[in] eig_vec Array representing the dominant eigenvector of Sigma.
 366:eig.c         ****  *
 367:eig.c         ****  * @param[in] lambda Scalar representing the dominant eigenvalue of Sigma.
 368:eig.c         ****  *
 369:eig.c         ****  * @return Nothing.
 370:eig.c         ****  *
 371:eig.c         ****  *****************************************************************************/
 372:eig.c         **** 
 373:eig.c         **** static void deflation(float Deflated_Sigma[MAT_SIZE][MAT_SIZE], 
 374:eig.c         ****   float Sigma[MAT_SIZE][MAT_SIZE], float eig_vec[MAT_SIZE], float lambda)
 375:eig.c         **** {
 135              		.loc 1 375 0
ARM GAS  C:\Users\dmeichle\AppData\Local\Temp\ccPKrfC4.s 			page 10


 136              		.cfi_startproc
 137              		@ args = 0, pretend = 0, frame = 0
 138              		@ frame_needed = 0, uses_anonymous_args = 0
 139              	.LVL19:
 140 0000 2DE9F84F 		push	{r3, r4, r5, r6, r7, r8, r9, r10, fp, lr}
 141              		.cfi_def_cfa_offset 40
 142              		.cfi_offset 3, -40
 143              		.cfi_offset 4, -36
 144              		.cfi_offset 5, -32
 145              		.cfi_offset 6, -28
 146              		.cfi_offset 7, -24
 147              		.cfi_offset 8, -20
 148              		.cfi_offset 9, -16
 149              		.cfi_offset 10, -12
 150              		.cfi_offset 11, -8
 151              		.cfi_offset 14, -4
 152 0004 8246     		mov	r10, r0
 153 0006 8946     		mov	r9, r1
 154 0008 1646     		mov	r6, r2
 155 000a 9846     		mov	r8, r3
 156              	.LVL20:
 376:eig.c         ****   uint8 i = 0, j = 0;
 377:eig.c         ****     
 378:eig.c         ****   for (i = 0; i < MAT_SIZE; ++i) 
 157              		.loc 1 378 0
 158 000c 0025     		movs	r5, #0
 159 000e 1CE0     		b	.L8
 160              	.LVL21:
 161              	.L9:
 379:eig.c         ****   {
 380:eig.c         ****     for (j = 0; j < MAT_SIZE; ++j) 
 381:eig.c         ****     {
 382:eig.c         ****       Deflated_Sigma[i][j] = Sigma[i][j] - lambda * eig_vec[i] * eig_vec[j];
 162              		.loc 1 382 0 discriminator 3
 163 0010 EB01     		lsls	r3, r5, #7
 164 0012 0AEB0307 		add	r7, r10, r3
 165 0016 4B44     		add	r3, r3, r9
 166 0018 53F824B0 		ldr	fp, [r3, r4, lsl #2]	@ float
 167 001c 4146     		mov	r1, r8
 168 001e 56F82500 		ldr	r0, [r6, r5, lsl #2]	@ float
 169 0022 FFF7FEFF 		bl	__aeabi_fmul
 170              	.LVL22:
 171 0026 56F82410 		ldr	r1, [r6, r4, lsl #2]	@ float
 172 002a FFF7FEFF 		bl	__aeabi_fmul
 173              	.LVL23:
 174 002e 0146     		mov	r1, r0
 175 0030 5846     		mov	r0, fp
 176 0032 FFF7FEFF 		bl	__aeabi_fsub
 177              	.LVL24:
 178 0036 47F82400 		str	r0, [r7, r4, lsl #2]	@ float
 380:eig.c         ****     {
 179              		.loc 1 380 0 discriminator 3
 180 003a 0134     		adds	r4, r4, #1
 181              	.LVL25:
 182 003c E4B2     		uxtb	r4, r4
 183              	.LVL26:
 184 003e 00E0     		b	.L10
ARM GAS  C:\Users\dmeichle\AppData\Local\Temp\ccPKrfC4.s 			page 11


 185              	.LVL27:
 186              	.L11:
 187 0040 0024     		movs	r4, #0
 188              	.L10:
 189              	.LVL28:
 380:eig.c         ****     {
 190              		.loc 1 380 0 is_stmt 0 discriminator 1
 191 0042 1F2C     		cmp	r4, #31
 192 0044 E4D9     		bls	.L9
 378:eig.c         ****   {
 193              		.loc 1 378 0 is_stmt 1 discriminator 2
 194 0046 0135     		adds	r5, r5, #1
 195              	.LVL29:
 196 0048 EDB2     		uxtb	r5, r5
 197              	.LVL30:
 198              	.L8:
 378:eig.c         ****   {
 199              		.loc 1 378 0 is_stmt 0 discriminator 1
 200 004a 1F2D     		cmp	r5, #31
 201 004c F8D9     		bls	.L11
 383:eig.c         ****     }
 384:eig.c         ****   }  
 385:eig.c         **** }
 202              		.loc 1 385 0 is_stmt 1
 203 004e BDE8F88F 		pop	{r3, r4, r5, r6, r7, r8, r9, r10, fp, pc}
 204              		.cfi_endproc
 205              	.LFE6:
 206              		.size	deflation, .-deflation
 207 0052 00BF     		.section	.text.dot,"ax",%progbits
 208              		.align	2
 209              		.global	dot
 210              		.thumb
 211              		.thumb_func
 212              		.type	dot, %function
 213              	dot:
 214              	.LFB3:
 212:eig.c         ****   /* Returns the dot product of float arrays of length MAT_SIZE at pointers "a"
 215              		.loc 1 212 0
 216              		.cfi_startproc
 217              		@ args = 0, pretend = 0, frame = 0
 218              		@ frame_needed = 0, uses_anonymous_args = 0
 219              	.LVL31:
 220 0000 F8B5     		push	{r3, r4, r5, r6, r7, lr}
 221              		.cfi_def_cfa_offset 24
 222              		.cfi_offset 3, -24
 223              		.cfi_offset 4, -20
 224              		.cfi_offset 5, -16
 225              		.cfi_offset 6, -12
 226              		.cfi_offset 7, -8
 227              		.cfi_offset 14, -4
 228 0002 0746     		mov	r7, r0
 229 0004 0E46     		mov	r6, r1
 230              	.LVL32:
 217:eig.c         ****         
 231              		.loc 1 217 0
 232 0006 0025     		movs	r5, #0
 219:eig.c         ****   {
ARM GAS  C:\Users\dmeichle\AppData\Local\Temp\ccPKrfC4.s 			page 12


 233              		.loc 1 219 0
 234 0008 0024     		movs	r4, #0
 235 000a 0CE0     		b	.L14
 236              	.LVL33:
 237              	.L15:
 221:eig.c         ****   }
 238              		.loc 1 221 0 discriminator 3
 239 000c 56F82410 		ldr	r1, [r6, r4, lsl #2]	@ float
 240 0010 57F82400 		ldr	r0, [r7, r4, lsl #2]	@ float
 241 0014 FFF7FEFF 		bl	__aeabi_fmul
 242              	.LVL34:
 243 0018 0146     		mov	r1, r0
 244 001a 2846     		mov	r0, r5
 245 001c FFF7FEFF 		bl	__aeabi_fadd
 246              	.LVL35:
 247 0020 0546     		mov	r5, r0
 248              	.LVL36:
 219:eig.c         ****   {
 249              		.loc 1 219 0 discriminator 3
 250 0022 0134     		adds	r4, r4, #1
 251              	.LVL37:
 252 0024 E4B2     		uxtb	r4, r4
 253              	.LVL38:
 254              	.L14:
 219:eig.c         ****   {
 255              		.loc 1 219 0 is_stmt 0 discriminator 1
 256 0026 1F2C     		cmp	r4, #31
 257 0028 F0D9     		bls	.L15
 225:eig.c         **** 
 258              		.loc 1 225 0 is_stmt 1
 259 002a 2846     		mov	r0, r5
 260 002c F8BD     		pop	{r3, r4, r5, r6, r7, pc}
 261              		.cfi_endproc
 262              	.LFE3:
 263              		.size	dot, .-dot
 264              		.global	__aeabi_f2d
 265              		.global	__aeabi_d2f
 266              		.global	__aeabi_fdiv
 267 002e 00BF     		.section	.text.power_iteration,"ax",%progbits
 268              		.align	2
 269              		.thumb
 270              		.thumb_func
 271              		.type	power_iteration, %function
 272              	power_iteration:
 273              	.LFB2:
 159:eig.c         ****   /* 
 274              		.loc 1 159 0
 275              		.cfi_startproc
 276              		@ args = 0, pretend = 0, frame = 128
 277              		@ frame_needed = 0, uses_anonymous_args = 0
 278              	.LVL39:
 279 0000 2DE9F047 		push	{r4, r5, r6, r7, r8, r9, r10, lr}
 280              		.cfi_def_cfa_offset 32
 281              		.cfi_offset 4, -32
 282              		.cfi_offset 5, -28
 283              		.cfi_offset 6, -24
 284              		.cfi_offset 7, -20
ARM GAS  C:\Users\dmeichle\AppData\Local\Temp\ccPKrfC4.s 			page 13


 285              		.cfi_offset 8, -16
 286              		.cfi_offset 9, -12
 287              		.cfi_offset 10, -8
 288              		.cfi_offset 14, -4
 289 0004 A0B0     		sub	sp, sp, #128
 290              		.cfi_def_cfa_offset 160
 291 0006 0546     		mov	r5, r0
 292 0008 0E46     		mov	r6, r1
 293 000a 9146     		mov	r9, r2
 294 000c 9846     		mov	r8, r3
 295              	.LVL40:
 166:eig.c         ****     
 296              		.loc 1 166 0
 297 000e 8022     		movs	r2, #128
 298              	.LVL41:
 299 0010 0021     		movs	r1, #0
 300              	.LVL42:
 301 0012 6846     		mov	r0, sp
 302              	.LVL43:
 303 0014 FFF7FEFF 		bl	memset
 304              	.LVL44:
 168:eig.c         ****   {
 305              		.loc 1 168 0
 306 0018 0027     		movs	r7, #0
 307 001a 40E0     		b	.L18
 308              	.LVL45:
 309              	.L26:
 170:eig.c         ****     {
 310              		.loc 1 170 0
 311 001c 77B1     		cbz	r7, .L27
 312 001e 0024     		movs	r4, #0
 313 0020 1CE0     		b	.L20
 314              	.LVL46:
 315              	.L21:
 175:eig.c         ****       }
 316              		.loc 1 175 0 discriminator 3
 317 0022 4946     		mov	r1, r9
 318 0024 06EBC410 		add	r0, r6, r4, lsl #7
 319 0028 FFF7FEFF 		bl	dot
 320              	.LVL47:
 321 002c 20AB     		add	r3, sp, #128
 322 002e 03EB8403 		add	r3, r3, r4, lsl #2
 323 0032 43F8800C 		str	r0, [r3, #-128]	@ float
 173:eig.c         ****       {
 324              		.loc 1 173 0 discriminator 3
 325 0036 0134     		adds	r4, r4, #1
 326              	.LVL48:
 327 0038 E4B2     		uxtb	r4, r4
 328              	.LVL49:
 329 003a 00E0     		b	.L19
 330              	.LVL50:
 331              	.L27:
 332 003c 0024     		movs	r4, #0
 333              	.L19:
 334              	.LVL51:
 173:eig.c         ****       {
 335              		.loc 1 173 0 is_stmt 0 discriminator 1
ARM GAS  C:\Users\dmeichle\AppData\Local\Temp\ccPKrfC4.s 			page 14


 336 003e 1F2C     		cmp	r4, #31
 337 0040 EFD9     		bls	.L21
 338 0042 0DE0     		b	.L22
 339              	.L23:
 183:eig.c         ****       }
 340              		.loc 1 183 0 is_stmt 1 discriminator 3
 341 0044 2946     		mov	r1, r5
 342 0046 06EBC410 		add	r0, r6, r4, lsl #7
 343 004a FFF7FEFF 		bl	dot
 344              	.LVL52:
 345 004e 20AB     		add	r3, sp, #128
 346 0050 03EB8403 		add	r3, r3, r4, lsl #2
 347 0054 43F8800C 		str	r0, [r3, #-128]	@ float
 181:eig.c         ****       {
 348              		.loc 1 181 0 discriminator 3
 349 0058 0134     		adds	r4, r4, #1
 350              	.LVL53:
 351 005a E4B2     		uxtb	r4, r4
 352              	.LVL54:
 353              	.L20:
 181:eig.c         ****       {
 354              		.loc 1 181 0 is_stmt 0 discriminator 1
 355 005c 1F2C     		cmp	r4, #31
 356 005e F1D9     		bls	.L23
 357              	.L22:
 187:eig.c         ****         
 358              		.loc 1 187 0 is_stmt 1
 359 0060 6946     		mov	r1, sp
 360 0062 6846     		mov	r0, sp
 361 0064 FFF7FEFF 		bl	dot
 362              	.LVL55:
 363 0068 0446     		mov	r4, r0
 364              	.LVL56:
 365 006a 2046     		mov	r0, r4
 366 006c FFF7FEFF 		bl	__aeabi_f2d
 367              	.LVL57:
 368 0070 FFF7FEFF 		bl	sqrt
 369              	.LVL58:
 370 0074 FFF7FEFF 		bl	__aeabi_d2f
 371              	.LVL59:
 372 0078 8246     		mov	r10, r0
 373              	.LVL60:
 189:eig.c         ****     {
 374              		.loc 1 189 0
 375 007a 0024     		movs	r4, #0
 376 007c 0BE0     		b	.L24
 377              	.LVL61:
 378              	.L25:
 191:eig.c         ****     }
 379              		.loc 1 191 0 discriminator 3
 380 007e 20AB     		add	r3, sp, #128
 381 0080 03EB8403 		add	r3, r3, r4, lsl #2
 382 0084 5146     		mov	r1, r10
 383 0086 53F8800C 		ldr	r0, [r3, #-128]	@ float
 384 008a FFF7FEFF 		bl	__aeabi_fdiv
 385              	.LVL62:
 386 008e 45F82400 		str	r0, [r5, r4, lsl #2]	@ float
ARM GAS  C:\Users\dmeichle\AppData\Local\Temp\ccPKrfC4.s 			page 15


 189:eig.c         ****     {
 387              		.loc 1 189 0 discriminator 3
 388 0092 0134     		adds	r4, r4, #1
 389              	.LVL63:
 390 0094 E4B2     		uxtb	r4, r4
 391              	.LVL64:
 392              	.L24:
 189:eig.c         ****     {
 393              		.loc 1 189 0 is_stmt 0 discriminator 1
 394 0096 1F2C     		cmp	r4, #31
 395 0098 F1D9     		bls	.L25
 168:eig.c         ****   {
 396              		.loc 1 168 0 is_stmt 1 discriminator 2
 397 009a 0137     		adds	r7, r7, #1
 398              	.LVL65:
 399 009c FFB2     		uxtb	r7, r7
 400              	.LVL66:
 401              	.L18:
 168:eig.c         ****   {
 402              		.loc 1 168 0 is_stmt 0 discriminator 1
 403 009e 4745     		cmp	r7, r8
 404 00a0 BCD3     		bcc	.L26
 195:eig.c         **** 
 405              		.loc 1 195 0 is_stmt 1
 406 00a2 20B0     		add	sp, sp, #128
 407              		.cfi_def_cfa_offset 32
 408              		@ sp needed
 409 00a4 BDE8F087 		pop	{r4, r5, r6, r7, r8, r9, r10, pc}
 410              		.cfi_endproc
 411              	.LFE2:
 412              		.size	power_iteration, .-power_iteration
 413              		.section	.text.invert_matrix,"ax",%progbits
 414              		.align	2
 415              		.global	invert_matrix
 416              		.thumb
 417              		.thumb_func
 418              		.type	invert_matrix, %function
 419              	invert_matrix:
 420              	.LFB7:
 386:eig.c         **** 
 387:eig.c         **** /**************************************************************************//**
 388:eig.c         ****  * invert_matrix
 389:eig.c         ****  *
 390:eig.c         ****  * @brief Modified version of Invert_Sigma from "FODMath.c", computes inverse
 391:eig.c         ****  * of matrix.
 392:eig.c         ****  *
 393:eig.c         ****  * @param[out] SigmaInverse 2D array that contains the result of the matrix
 394:eig.c         ****  * inversion.
 395:eig.c         ****  *
 396:eig.c         ****  * @param[in] Sigma 2D array of dimension MAT_SIZE x MAT_SIZE to be inverted.
 397:eig.c         ****  *
 398:eig.c         ****  * @return Nothing.
 399:eig.c         ****  *
 400:eig.c         ****  *****************************************************************************/
 401:eig.c         **** 
 402:eig.c         **** void invert_matrix(float Sigma[MAT_SIZE][MAT_SIZE], float SigmaInverse[MAT_SIZE][MAT_SIZE])
 403:eig.c         **** {
ARM GAS  C:\Users\dmeichle\AppData\Local\Temp\ccPKrfC4.s 			page 16


 421              		.loc 1 403 0
 422              		.cfi_startproc
 423              		@ args = 0, pretend = 0, frame = 16
 424              		@ frame_needed = 0, uses_anonymous_args = 0
 425              	.LVL67:
 426 0000 2DE9F04F 		push	{r4, r5, r6, r7, r8, r9, r10, fp, lr}
 427              		.cfi_def_cfa_offset 36
 428              		.cfi_offset 4, -36
 429              		.cfi_offset 5, -32
 430              		.cfi_offset 6, -28
 431              		.cfi_offset 7, -24
 432              		.cfi_offset 8, -20
 433              		.cfi_offset 9, -16
 434              		.cfi_offset 10, -12
 435              		.cfi_offset 11, -8
 436              		.cfi_offset 14, -4
 437 0004 85B0     		sub	sp, sp, #20
 438              		.cfi_def_cfa_offset 56
 439 0006 0290     		str	r0, [sp, #8]
 440 0008 0E46     		mov	r6, r1
 441              	.LVL68:
 404:eig.c         ****     uint16 i,j,k;     
 405:eig.c         **** 	float temp;
 406:eig.c         **** 	
 407:eig.c         ****     // make Sigma Inverse the Identity matrix
 408:eig.c         **** 	for (i = 0;i<MAT_SIZE;i++)
 442              		.loc 1 408 0
 443 000a 0021     		movs	r1, #0
 444              	.LVL69:
 445 000c 15E0     		b	.L30
 446              	.LVL70:
 447              	.L33:
 409:eig.c         ****     {
 410:eig.c         ****         for (j=0;j<MAT_SIZE;j++)
 411:eig.c         ****         {
 412:eig.c         ****             if(i==j)
 448              		.loc 1 412 0
 449 000e 9942     		cmp	r1, r3
 450 0010 06D1     		bne	.L31
 413:eig.c         ****                 SigmaInverse[i][j] = 1;
 451              		.loc 1 413 0
 452 0012 06EBC112 		add	r2, r6, r1, lsl #7
 453 0016 4FF07E50 		mov	r0, #1065353216
 454 001a 42F82300 		str	r0, [r2, r3, lsl #2]	@ float
 455 001e 04E0     		b	.L32
 456              	.L31:
 414:eig.c         ****             else
 415:eig.c         ****                 SigmaInverse[i][j] = 0;
 457              		.loc 1 415 0
 458 0020 06EBC112 		add	r2, r6, r1, lsl #7
 459 0024 0020     		movs	r0, #0
 460 0026 42F82300 		str	r0, [r2, r3, lsl #2]	@ float
 461              	.L32:
 410:eig.c         ****         {
 462              		.loc 1 410 0 discriminator 2
 463 002a 0133     		adds	r3, r3, #1
 464              	.LVL71:
ARM GAS  C:\Users\dmeichle\AppData\Local\Temp\ccPKrfC4.s 			page 17


 465 002c 9BB2     		uxth	r3, r3
 466              	.LVL72:
 467 002e 00E0     		b	.L34
 468              	.LVL73:
 469              	.L44:
 470 0030 0023     		movs	r3, #0
 471              	.L34:
 472              	.LVL74:
 410:eig.c         ****         {
 473              		.loc 1 410 0 is_stmt 0 discriminator 1
 474 0032 1F2B     		cmp	r3, #31
 475 0034 EBD9     		bls	.L33
 408:eig.c         ****     {
 476              		.loc 1 408 0 is_stmt 1 discriminator 2
 477 0036 0131     		adds	r1, r1, #1
 478              	.LVL75:
 479 0038 89B2     		uxth	r1, r1
 480              	.LVL76:
 481              	.L30:
 408:eig.c         ****     {
 482              		.loc 1 408 0 is_stmt 0 discriminator 1
 483 003a 1F29     		cmp	r1, #31
 484 003c F8D9     		bls	.L44
 485 003e 0023     		movs	r3, #0
 486 0040 0193     		str	r3, [sp, #4]
 487 0042 5BE0     		b	.L35
 488              	.LVL77:
 489              	.L43:
 416:eig.c         ****         }
 417:eig.c         ****     }
 418:eig.c         **** 		
 419:eig.c         **** 	 for (i=0; i<MAT_SIZE; i++)
 420:eig.c         ****      {
 421:eig.c         ****         //Divide row by diagonal element of Sigma
 422:eig.c         ****         temp = Sigma[i][i];
 490              		.loc 1 422 0 is_stmt 1
 491 0044 019A     		ldr	r2, [sp, #4]
 492 0046 4FEAC21B 		lsl	fp, r2, #7
 493 004a 029B     		ldr	r3, [sp, #8]
 494 004c 03EB0B09 		add	r9, r3, fp
 495 0050 0392     		str	r2, [sp, #12]
 496 0052 59F82270 		ldr	r7, [r9, r2, lsl #2]	@ float
 497              	.LVL78:
 423:eig.c         ****         for (j=0; j<MAT_SIZE; j++)
 498              		.loc 1 423 0
 499 0056 0024     		movs	r4, #0
 500 0058 11E0     		b	.L36
 501              	.LVL79:
 502              	.L37:
 424:eig.c         ****         {
 425:eig.c         ****             SigmaInverse[i][j] /= temp; //  has a lot of 0s, 1st time
 503              		.loc 1 425 0 discriminator 3
 504 005a 06EB0B05 		add	r5, r6, fp
 505 005e 3946     		mov	r1, r7
 506 0060 55F82400 		ldr	r0, [r5, r4, lsl #2]	@ float
 507 0064 FFF7FEFF 		bl	__aeabi_fdiv
 508              	.LVL80:
ARM GAS  C:\Users\dmeichle\AppData\Local\Temp\ccPKrfC4.s 			page 18


 509 0068 45F82400 		str	r0, [r5, r4, lsl #2]	@ float
 426:eig.c         ****             Sigma[i][j] /= temp;
 510              		.loc 1 426 0 discriminator 3
 511 006c 3946     		mov	r1, r7
 512 006e 59F82400 		ldr	r0, [r9, r4, lsl #2]	@ float
 513 0072 FFF7FEFF 		bl	__aeabi_fdiv
 514              	.LVL81:
 515 0076 49F82400 		str	r0, [r9, r4, lsl #2]	@ float
 423:eig.c         ****         for (j=0; j<MAT_SIZE; j++)
 516              		.loc 1 423 0 discriminator 3
 517 007a 0134     		adds	r4, r4, #1
 518              	.LVL82:
 519 007c A4B2     		uxth	r4, r4
 520              	.LVL83:
 521              	.L36:
 423:eig.c         ****         for (j=0; j<MAT_SIZE; j++)
 522              		.loc 1 423 0 is_stmt 0 discriminator 1
 523 007e 1F2C     		cmp	r4, #31
 524 0080 EBD9     		bls	.L37
 525 0082 0023     		movs	r3, #0
 526 0084 0093     		str	r3, [sp]
 527 0086 32E0     		b	.L38
 528              	.LVL84:
 529              	.L42:
 427:eig.c         ****         }
 428:eig.c         **** 
 429:eig.c         **** 		//Eliminate non-diagonal elements in
 430:eig.c         ****         for (k=0;k<MAT_SIZE;k++)
 431:eig.c         ****         {
 432:eig.c         ****             if(k!=i)
 530              		.loc 1 432 0 is_stmt 1
 531 0088 019B     		ldr	r3, [sp, #4]
 532 008a 1946     		mov	r1, r3
 533 008c 009A     		ldr	r2, [sp]
 534 008e 9142     		cmp	r1, r2
 535 0090 29D0     		beq	.L39
 433:eig.c         ****             {
 434:eig.c         ****             	temp = Sigma[k][i];
 536              		.loc 1 434 0
 537 0092 4FEAC21A 		lsl	r10, r2, #7
 538 0096 029B     		ldr	r3, [sp, #8]
 539 0098 03EB0A07 		add	r7, r3, r10
 540 009c 039B     		ldr	r3, [sp, #12]
 541 009e 57F82380 		ldr	r8, [r7, r3, lsl #2]	@ float
 542              	.LVL85:
 435:eig.c         ****             	for (j=0;j<MAT_SIZE;j++)
 543              		.loc 1 435 0
 544 00a2 0024     		movs	r4, #0
 545 00a4 1DE0     		b	.L40
 546              	.LVL86:
 547              	.L41:
 436:eig.c         ****             	{
 437:eig.c         **** 
 438:eig.c         ****                     SigmaInverse[k][j]-= temp*SigmaInverse[i][j];
 548              		.loc 1 438 0 discriminator 3
 549 00a6 06EB0A05 		add	r5, r6, r10
 550 00aa 06EB0B03 		add	r3, r6, fp
ARM GAS  C:\Users\dmeichle\AppData\Local\Temp\ccPKrfC4.s 			page 19


 551 00ae 53F82410 		ldr	r1, [r3, r4, lsl #2]	@ float
 552 00b2 4046     		mov	r0, r8
 553 00b4 FFF7FEFF 		bl	__aeabi_fmul
 554              	.LVL87:
 555 00b8 0146     		mov	r1, r0
 556 00ba 55F82400 		ldr	r0, [r5, r4, lsl #2]	@ float
 557 00be FFF7FEFF 		bl	__aeabi_fsub
 558              	.LVL88:
 559 00c2 45F82400 		str	r0, [r5, r4, lsl #2]	@ float
 439:eig.c         ****                     Sigma[k][j]-= temp*Sigma[i][j];
 560              		.loc 1 439 0 discriminator 3
 561 00c6 59F82410 		ldr	r1, [r9, r4, lsl #2]	@ float
 562 00ca 4046     		mov	r0, r8
 563 00cc FFF7FEFF 		bl	__aeabi_fmul
 564              	.LVL89:
 565 00d0 0146     		mov	r1, r0
 566 00d2 57F82400 		ldr	r0, [r7, r4, lsl #2]	@ float
 567 00d6 FFF7FEFF 		bl	__aeabi_fsub
 568              	.LVL90:
 569 00da 47F82400 		str	r0, [r7, r4, lsl #2]	@ float
 435:eig.c         ****             	for (j=0;j<MAT_SIZE;j++)
 570              		.loc 1 435 0 discriminator 3
 571 00de 0134     		adds	r4, r4, #1
 572              	.LVL91:
 573 00e0 A4B2     		uxth	r4, r4
 574              	.LVL92:
 575              	.L40:
 435:eig.c         ****             	for (j=0;j<MAT_SIZE;j++)
 576              		.loc 1 435 0 is_stmt 0 discriminator 1
 577 00e2 1F2C     		cmp	r4, #31
 578 00e4 DFD9     		bls	.L41
 579              	.LVL93:
 580              	.L39:
 430:eig.c         ****         {
 581              		.loc 1 430 0 is_stmt 1 discriminator 2
 582 00e6 009B     		ldr	r3, [sp]
 583 00e8 0133     		adds	r3, r3, #1
 584 00ea 9BB2     		uxth	r3, r3
 585 00ec 0093     		str	r3, [sp]
 586              	.LVL94:
 587              	.L38:
 430:eig.c         ****         {
 588              		.loc 1 430 0 is_stmt 0 discriminator 1
 589 00ee 009B     		ldr	r3, [sp]
 590 00f0 1F2B     		cmp	r3, #31
 591 00f2 C9D9     		bls	.L42
 419:eig.c         ****      {
 592              		.loc 1 419 0 is_stmt 1 discriminator 2
 593 00f4 019B     		ldr	r3, [sp, #4]
 594 00f6 0133     		adds	r3, r3, #1
 595 00f8 9BB2     		uxth	r3, r3
 596 00fa 0193     		str	r3, [sp, #4]
 597              	.LVL95:
 598              	.L35:
 419:eig.c         ****      {
 599              		.loc 1 419 0 is_stmt 0 discriminator 1
 600 00fc 019B     		ldr	r3, [sp, #4]
ARM GAS  C:\Users\dmeichle\AppData\Local\Temp\ccPKrfC4.s 			page 20


 601 00fe 1F2B     		cmp	r3, #31
 602 0100 A0D9     		bls	.L43
 440:eig.c         ****             	}
 441:eig.c         ****         	}
 442:eig.c         ****     	}
 443:eig.c         ****         
 444:eig.c         **** 	}
 445:eig.c         **** 	// Make the inverse covariance matrix symmetric // ****may be able to take this out ...
 446:eig.c         **** 	/*for (i = 0;i<MAT_SIZE;i++)
 447:eig.c         ****     {
 448:eig.c         ****         for (j=0;j<MAT_SIZE;j++)
 449:eig.c         ****         {
 450:eig.c         ****             SigmaInverse[i][j] = (SigmaInverse[i][j] + SigmaInverse[j][i])/2;
 451:eig.c         **** 			SigmaInverse[j][i] = SigmaInverse[i][j];
 452:eig.c         ****         }
 453:eig.c         ****     }*/
 454:eig.c         **** }
 603              		.loc 1 454 0 is_stmt 1
 604 0102 05B0     		add	sp, sp, #20
 605              		.cfi_def_cfa_offset 36
 606              		@ sp needed
 607 0104 BDE8F08F 		pop	{r4, r5, r6, r7, r8, r9, r10, fp, pc}
 608              		.cfi_endproc
 609              	.LFE7:
 610              		.size	invert_matrix, .-invert_matrix
 611              		.section	.text.rayleigh_quotient_iteration,"ax",%progbits
 612              		.align	2
 613              		.thumb
 614              		.thumb_func
 615              		.type	rayleigh_quotient_iteration, %function
 616              	rayleigh_quotient_iteration:
 617              	.LFB5:
 286:eig.c         ****   uint8 i = 0, j = 0, k = 0;
 618              		.loc 1 286 0
 619              		.cfi_startproc
 620              		@ args = 0, pretend = 0, frame = 128
 621              		@ frame_needed = 0, uses_anonymous_args = 0
 622              	.LVL96:
 623 0000 2DE9F04F 		push	{r4, r5, r6, r7, r8, r9, r10, fp, lr}
 624              		.cfi_def_cfa_offset 36
 625              		.cfi_offset 4, -36
 626              		.cfi_offset 5, -32
 627              		.cfi_offset 6, -28
 628              		.cfi_offset 7, -24
 629              		.cfi_offset 8, -20
 630              		.cfi_offset 9, -16
 631              		.cfi_offset 10, -12
 632              		.cfi_offset 11, -8
 633              		.cfi_offset 14, -4
 634 0004 A1B0     		sub	sp, sp, #132
 635              		.cfi_def_cfa_offset 168
 636 0006 0746     		mov	r7, r0
 637 0008 0E46     		mov	r6, r1
 638 000a 9246     		mov	r10, r2
 639 000c 9B46     		mov	fp, r3
 640              	.LVL97:
 289:eig.c         ****      
ARM GAS  C:\Users\dmeichle\AppData\Local\Temp\ccPKrfC4.s 			page 21


 641              		.loc 1 289 0
 642 000e 8022     		movs	r2, #128
 643              	.LVL98:
 644 0010 0021     		movs	r1, #0
 645              	.LVL99:
 646 0012 6846     		mov	r0, sp
 647              	.LVL100:
 648 0014 FFF7FEFF 		bl	memset
 649              	.LVL101:
 292:eig.c         ****     
 650              		.loc 1 292 0
 651 0018 5146     		mov	r1, r10
 652 001a 3046     		mov	r0, r6
 653 001c FFF7FEFF 		bl	compute_rayleigh_quotient
 654              	.LVL102:
 655 0020 8146     		mov	r9, r0
 656              	.LVL103:
 294:eig.c         ****   {
 657              		.loc 1 294 0
 658 0022 4FF00008 		mov	r8, #0
 659 0026 73E0     		b	.L47
 660              	.LVL104:
 661              	.L50:
 301:eig.c         ****         {
 662              		.loc 1 301 0
 663 0028 A542     		cmp	r5, r4
 664 002a 0CD1     		bne	.L48
 303:eig.c         ****         }
 665              		.loc 1 303 0
 666 002c 06EBC513 		add	r3, r6, r5, lsl #7
 667 0030 4946     		mov	r1, r9
 668 0032 53F82500 		ldr	r0, [r3, r5, lsl #2]	@ float
 669 0036 FFF7FEFF 		bl	__aeabi_fsub
 670              	.LVL105:
 671 003a 05EB4512 		add	r2, r5, r5, lsl #5
 672 003e 9300     		lsls	r3, r2, #2
 673 0040 364A     		ldr	r2, .L64
 674 0042 D050     		str	r0, [r2, r3]	@ float
 675 0044 08E0     		b	.L49
 676              	.L48:
 307:eig.c         ****         }
 677              		.loc 1 307 0
 678 0046 06EBC513 		add	r3, r6, r5, lsl #7
 679 004a 53F82410 		ldr	r1, [r3, r4, lsl #2]	@ float
 680 004e 04EB4513 		add	r3, r4, r5, lsl #5
 681 0052 324A     		ldr	r2, .L64
 682 0054 42F82310 		str	r1, [r2, r3, lsl #2]	@ float
 683              	.L49:
 299:eig.c         ****       {
 684              		.loc 1 299 0 discriminator 2
 685 0058 0134     		adds	r4, r4, #1
 686              	.LVL106:
 687 005a E4B2     		uxtb	r4, r4
 688              	.LVL107:
 689 005c 00E0     		b	.L51
 690              	.LVL108:
 691              	.L60:
ARM GAS  C:\Users\dmeichle\AppData\Local\Temp\ccPKrfC4.s 			page 22


 692 005e 0024     		movs	r4, #0
 693              	.L51:
 694              	.LVL109:
 299:eig.c         ****       {
 695              		.loc 1 299 0 is_stmt 0 discriminator 1
 696 0060 1F2C     		cmp	r4, #31
 697 0062 E1D9     		bls	.L50
 297:eig.c         ****     {  
 698              		.loc 1 297 0 is_stmt 1 discriminator 2
 699 0064 0135     		adds	r5, r5, #1
 700              	.LVL110:
 701 0066 EDB2     		uxtb	r5, r5
 702              	.LVL111:
 703 0068 00E0     		b	.L59
 704              	.LVL112:
 705              	.L62:
 706 006a 0025     		movs	r5, #0
 707              	.LVL113:
 708              	.L59:
 297:eig.c         ****     {  
 709              		.loc 1 297 0 is_stmt 0 discriminator 1
 710 006c 1F2D     		cmp	r5, #31
 711 006e F6D9     		bls	.L60
 316:eig.c         ****     
 712              		.loc 1 316 0 is_stmt 1
 713 0070 2B49     		ldr	r1, .L64+4
 714 0072 2A48     		ldr	r0, .L64
 715 0074 FFF7FEFF 		bl	invert_matrix
 716              	.LVL114:
 320:eig.c         ****     {
 717              		.loc 1 320 0
 718 0078 B8F1000F 		cmp	r8, #0
 719 007c 0FD0     		beq	.L61
 720 007e 0024     		movs	r4, #0
 721 0080 1EE0     		b	.L53
 722              	.LVL115:
 723              	.L54:
 324:eig.c         ****       }
 724              		.loc 1 324 0 discriminator 3
 725 0082 5146     		mov	r1, r10
 726 0084 2648     		ldr	r0, .L64+4
 727 0086 00EBC410 		add	r0, r0, r4, lsl #7
 728 008a FFF7FEFF 		bl	dot
 729              	.LVL116:
 730 008e 20AB     		add	r3, sp, #128
 731 0090 03EB8403 		add	r3, r3, r4, lsl #2
 732 0094 43F8800C 		str	r0, [r3, #-128]	@ float
 322:eig.c         ****       {
 733              		.loc 1 322 0 discriminator 3
 734 0098 0134     		adds	r4, r4, #1
 735              	.LVL117:
 736 009a E4B2     		uxtb	r4, r4
 737              	.LVL118:
 738 009c 00E0     		b	.L52
 739              	.LVL119:
 740              	.L61:
 741 009e 0024     		movs	r4, #0
ARM GAS  C:\Users\dmeichle\AppData\Local\Temp\ccPKrfC4.s 			page 23


 742              	.LVL120:
 743              	.L52:
 322:eig.c         ****       {
 744              		.loc 1 322 0 is_stmt 0 discriminator 1
 745 00a0 1F2C     		cmp	r4, #31
 746 00a2 EED9     		bls	.L54
 747 00a4 0EE0     		b	.L55
 748              	.L56:
 331:eig.c         ****       }
 749              		.loc 1 331 0 is_stmt 1 discriminator 3
 750 00a6 3946     		mov	r1, r7
 751 00a8 1D48     		ldr	r0, .L64+4
 752 00aa 00EBC410 		add	r0, r0, r4, lsl #7
 753 00ae FFF7FEFF 		bl	dot
 754              	.LVL121:
 755 00b2 20AB     		add	r3, sp, #128
 756 00b4 03EB8403 		add	r3, r3, r4, lsl #2
 757 00b8 43F8800C 		str	r0, [r3, #-128]	@ float
 329:eig.c         ****       {
 758              		.loc 1 329 0 discriminator 3
 759 00bc 0134     		adds	r4, r4, #1
 760              	.LVL122:
 761 00be E4B2     		uxtb	r4, r4
 762              	.LVL123:
 763              	.L53:
 329:eig.c         ****       {
 764              		.loc 1 329 0 is_stmt 0 discriminator 1
 765 00c0 1F2C     		cmp	r4, #31
 766 00c2 F0D9     		bls	.L56
 767              	.L55:
 336:eig.c         ****         
 768              		.loc 1 336 0 is_stmt 1
 769 00c4 6946     		mov	r1, sp
 770 00c6 6846     		mov	r0, sp
 771 00c8 FFF7FEFF 		bl	dot
 772              	.LVL124:
 773 00cc 0446     		mov	r4, r0
 774              	.LVL125:
 775 00ce 2046     		mov	r0, r4
 776 00d0 FFF7FEFF 		bl	__aeabi_f2d
 777              	.LVL126:
 778 00d4 FFF7FEFF 		bl	sqrt
 779              	.LVL127:
 780 00d8 FFF7FEFF 		bl	__aeabi_d2f
 781              	.LVL128:
 782 00dc 0546     		mov	r5, r0
 783              	.LVL129:
 339:eig.c         ****     {
 784              		.loc 1 339 0
 785 00de 0024     		movs	r4, #0
 786 00e0 0BE0     		b	.L57
 787              	.LVL130:
 788              	.L58:
 341:eig.c         ****     }
 789              		.loc 1 341 0 discriminator 3
 790 00e2 20AB     		add	r3, sp, #128
 791 00e4 03EB8403 		add	r3, r3, r4, lsl #2
ARM GAS  C:\Users\dmeichle\AppData\Local\Temp\ccPKrfC4.s 			page 24


 792 00e8 2946     		mov	r1, r5
 793 00ea 53F8800C 		ldr	r0, [r3, #-128]	@ float
 794 00ee FFF7FEFF 		bl	__aeabi_fdiv
 795              	.LVL131:
 796 00f2 47F82400 		str	r0, [r7, r4, lsl #2]	@ float
 339:eig.c         ****     {
 797              		.loc 1 339 0 discriminator 3
 798 00f6 0134     		adds	r4, r4, #1
 799              	.LVL132:
 800 00f8 E4B2     		uxtb	r4, r4
 801              	.LVL133:
 802              	.L57:
 339:eig.c         ****     {
 803              		.loc 1 339 0 is_stmt 0 discriminator 1
 804 00fa 1F2C     		cmp	r4, #31
 805 00fc F1D9     		bls	.L58
 345:eig.c         ****     
 806              		.loc 1 345 0 is_stmt 1 discriminator 2
 807 00fe 3946     		mov	r1, r7
 808 0100 3046     		mov	r0, r6
 809 0102 FFF7FEFF 		bl	compute_rayleigh_quotient
 810              	.LVL134:
 811 0106 8146     		mov	r9, r0
 812              	.LVL135:
 294:eig.c         ****   {
 813              		.loc 1 294 0 discriminator 2
 814 0108 08F10108 		add	r8, r8, #1
 815              	.LVL136:
 816 010c 5FFA88F8 		uxtb	r8, r8
 817              	.LVL137:
 818              	.L47:
 294:eig.c         ****   {
 819              		.loc 1 294 0 is_stmt 0 discriminator 1
 820 0110 D845     		cmp	r8, fp
 821 0112 AAD3     		bcc	.L62
 350:eig.c         **** 
 822              		.loc 1 350 0 is_stmt 1
 823 0114 4846     		mov	r0, r9
 824 0116 21B0     		add	sp, sp, #132
 825              		.cfi_def_cfa_offset 36
 826              		@ sp needed
 827 0118 BDE8F08F 		pop	{r4, r5, r6, r7, r8, r9, r10, fp, pc}
 828              	.LVL138:
 829              	.L65:
 830              		.align	2
 831              	.L64:
 832 011c 00000000 		.word	W2
 833 0120 00000000 		.word	W3
 834              		.cfi_endproc
 835              	.LFE5:
 836              		.size	rayleigh_quotient_iteration, .-rayleigh_quotient_iteration
 837              		.section	.text.eig_decomp,"ax",%progbits
 838              		.align	2
 839              		.global	eig_decomp
 840              		.thumb
 841              		.thumb_func
 842              		.type	eig_decomp, %function
ARM GAS  C:\Users\dmeichle\AppData\Local\Temp\ccPKrfC4.s 			page 25


 843              	eig_decomp:
 844              	.LFB1:
  79:eig.c         ****   uint8 i = 0;
 845              		.loc 1 79 0
 846              		.cfi_startproc
 847              		@ args = 8, pretend = 0, frame = 0
 848              		@ frame_needed = 0, uses_anonymous_args = 0
 849              	.LVL139:
 850 0000 2DE9F84F 		push	{r3, r4, r5, r6, r7, r8, r9, r10, fp, lr}
 851              		.cfi_def_cfa_offset 40
 852              		.cfi_offset 3, -40
 853              		.cfi_offset 4, -36
 854              		.cfi_offset 5, -32
 855              		.cfi_offset 6, -28
 856              		.cfi_offset 7, -24
 857              		.cfi_offset 8, -20
 858              		.cfi_offset 9, -16
 859              		.cfi_offset 10, -12
 860              		.cfi_offset 11, -8
 861              		.cfi_offset 14, -4
 862 0004 8046     		mov	r8, r0
 863 0006 0D46     		mov	r5, r1
 864 0008 9246     		mov	r10, r2
 865 000a 9946     		mov	r9, r3
 866 000c 9DF82860 		ldrb	r6, [sp, #40]	@ zero_extendqisi2
 867 0010 9DF82C70 		ldrb	r7, [sp, #44]	@ zero_extendqisi2
 868              	.LVL140:
  84:eig.c         ****   {
 869              		.loc 1 84 0
 870 0014 B6B1     		cbz	r6, .L67
  87:eig.c         ****     if (0 == r_iter)
 871              		.loc 1 87 0
 872 0016 3346     		mov	r3, r6
 873              	.LVL141:
 874 0018 4A46     		mov	r2, r9
 875              	.LVL142:
 876 001a 5146     		mov	r1, r10
 877              	.LVL143:
 878 001c 2846     		mov	r0, r5
 879              	.LVL144:
 880 001e FFF7FEFF 		bl	power_iteration
 881              	.LVL145:
  88:eig.c         ****     {
 882              		.loc 1 88 0
 883 0022 37B9     		cbnz	r7, .L68
  90:eig.c         ****     }
 884              		.loc 1 90 0
 885 0024 2946     		mov	r1, r5
 886 0026 5046     		mov	r0, r10
 887 0028 FFF7FEFF 		bl	compute_rayleigh_quotient
 888              	.LVL146:
 889 002c C8F80000 		str	r0, [r8]	@ float
 890 0030 11E0     		b	.L69
 891              	.L68:
  94:eig.c         ****     }
 892              		.loc 1 94 0
 893 0032 3B46     		mov	r3, r7
ARM GAS  C:\Users\dmeichle\AppData\Local\Temp\ccPKrfC4.s 			page 26


 894 0034 2A46     		mov	r2, r5
 895 0036 5146     		mov	r1, r10
 896 0038 2846     		mov	r0, r5
 897 003a FFF7FEFF 		bl	rayleigh_quotient_iteration
 898              	.LVL147:
 899 003e C8F80000 		str	r0, [r8]	@ float
 900 0042 08E0     		b	.L69
 901              	.LVL148:
 902              	.L67:
  97:eig.c         ****   {
 903              		.loc 1 97 0
 904 0044 3FB1     		cbz	r7, .L69
  99:eig.c         ****   } /* else, p_it == 0 and r_it == 0 and Phi won't be updated */
 905              		.loc 1 99 0
 906 0046 3B46     		mov	r3, r7
 907              	.LVL149:
 908 0048 4A46     		mov	r2, r9
 909              	.LVL150:
 910 004a 5146     		mov	r1, r10
 911              	.LVL151:
 912 004c 2846     		mov	r0, r5
 913              	.LVL152:
 914 004e FFF7FEFF 		bl	rayleigh_quotient_iteration
 915              	.LVL153:
 916 0052 C8F80000 		str	r0, [r8]	@ float
 917              	.L69:
  79:eig.c         ****   uint8 i = 0;
 918              		.loc 1 79 0 discriminator 1
 919 0056 0124     		movs	r4, #1
 920 0058 3FE0     		b	.L70
 921              	.LVL154:
 922              	.L76:
 105:eig.c         ****     {
 923              		.loc 1 105 0
 924 005a 012C     		cmp	r4, #1
 925 005c 07D1     		bne	.L71
 108:eig.c         ****     } 
 926              		.loc 1 108 0
 927 005e D8F80030 		ldr	r3, [r8]	@ float
 928 0062 2A46     		mov	r2, r5
 929 0064 5146     		mov	r1, r10
 930 0066 1F48     		ldr	r0, .L78
 931 0068 FFF7FEFF 		bl	deflation
 932              	.LVL155:
 933 006c 0DE0     		b	.L72
 934              	.L71:
 113:eig.c         ****     }
 935              		.loc 1 113 0
 936 006e 04F10072 		add	r2, r4, #33554432
 937 0072 013A     		subs	r2, r2, #1
 938 0074 04F18043 		add	r3, r4, #1073741824
 939 0078 013B     		subs	r3, r3, #1
 940 007a 1A48     		ldr	r0, .L78
 941 007c 58F82330 		ldr	r3, [r8, r3, lsl #2]	@ float
 942 0080 05EBC212 		add	r2, r5, r2, lsl #7
 943 0084 0146     		mov	r1, r0
 944 0086 FFF7FEFF 		bl	deflation
ARM GAS  C:\Users\dmeichle\AppData\Local\Temp\ccPKrfC4.s 			page 27


 945              	.LVL156:
 946              	.L72:
 116:eig.c         ****     {
 947              		.loc 1 116 0
 948 008a CEB1     		cbz	r6, .L73
 119:eig.c         ****       if (0 == r_iter) 
 949              		.loc 1 119 0
 950 008c E201     		lsls	r2, r4, #7
 951 008e 05EB020B 		add	fp, r5, r2
 952 0092 3346     		mov	r3, r6
 953 0094 4A44     		add	r2, r2, r9
 954 0096 1349     		ldr	r1, .L78
 955 0098 5846     		mov	r0, fp
 956 009a FFF7FEFF 		bl	power_iteration
 957              	.LVL157:
 120:eig.c         ****       {
 958              		.loc 1 120 0
 959 009e 37B9     		cbnz	r7, .L74
 122:eig.c         ****       } 
 960              		.loc 1 122 0
 961 00a0 5946     		mov	r1, fp
 962 00a2 1048     		ldr	r0, .L78
 963 00a4 FFF7FEFF 		bl	compute_rayleigh_quotient
 964              	.LVL158:
 965 00a8 48F82400 		str	r0, [r8, r4, lsl #2]	@ float
 966 00ac 13E0     		b	.L75
 967              	.L74:
 126:eig.c         ****       }
 968              		.loc 1 126 0
 969 00ae 3B46     		mov	r3, r7
 970 00b0 5A46     		mov	r2, fp
 971 00b2 0C49     		ldr	r1, .L78
 972 00b4 5846     		mov	r0, fp
 973 00b6 FFF7FEFF 		bl	rayleigh_quotient_iteration
 974              	.LVL159:
 975 00ba 48F82400 		str	r0, [r8, r4, lsl #2]	@ float
 976 00be 0AE0     		b	.L75
 977              	.L73:
 129:eig.c         ****     {
 978              		.loc 1 129 0
 979 00c0 4FB1     		cbz	r7, .L75
 131:eig.c         ****     } /* else, p_it == 0 and r_it == 0 and Phi won't be updated */
 980              		.loc 1 131 0
 981 00c2 E001     		lsls	r0, r4, #7
 982 00c4 3B46     		mov	r3, r7
 983 00c6 09EB0002 		add	r2, r9, r0
 984 00ca 0649     		ldr	r1, .L78
 985 00cc 2844     		add	r0, r0, r5
 986 00ce FFF7FEFF 		bl	rayleigh_quotient_iteration
 987              	.LVL160:
 988 00d2 48F82400 		str	r0, [r8, r4, lsl #2]	@ float
 989              	.L75:
 102:eig.c         ****   {
 990              		.loc 1 102 0 discriminator 2
 991 00d6 0134     		adds	r4, r4, #1
 992              	.LVL161:
 993 00d8 E4B2     		uxtb	r4, r4
ARM GAS  C:\Users\dmeichle\AppData\Local\Temp\ccPKrfC4.s 			page 28


 994              	.LVL162:
 995              	.L70:
 102:eig.c         ****   {
 996              		.loc 1 102 0 is_stmt 0 discriminator 1
 997 00da 032C     		cmp	r4, #3
 998 00dc BDD9     		bls	.L76
 136:eig.c         **** 
 999              		.loc 1 136 0 is_stmt 1
 1000 00de BDE8F88F 		pop	{r3, r4, r5, r6, r7, r8, r9, r10, fp, pc}
 1001              	.LVL163:
 1002              	.L79:
 1003 00e2 00BF     		.align	2
 1004              	.L78:
 1005 00e4 00000000 		.word	W1
 1006              		.cfi_endproc
 1007              	.LFE1:
 1008              		.size	eig_decomp, .-eig_decomp
 1009              		.text
 1010              	.Letext0:
 1011              		.file 2 "Generated_Source\\PSoC5/cytypes.h"
 1012              		.file 3 "c:\\program files (x86)\\cypress\\psoc creator\\4.4\\psoc creator\\import\\gnu\\arm\\5.4.